target datalayout = "e-m:e-p270:32:32-p271:32:32-p272:64:64-i64:64-i128:128-f80:128-n8:16:32:64-S128"
target triple = "x86_64-pc-linux-gnu"

%class.ErrorHandler = type <{ i32, i32, i8, i8, i8, i8, i8, i8, [2 x i8] }>
%class.RangeCoder = type { i32, i32, i32, %"struct.RangeCoder::SUBRANGE", ptr }
%"struct.RangeCoder::SUBRANGE" = type { i32, i32, i32 }
%class.SubAllocator = type { i64, [38 x i8], [128 x i8], i8, ptr, ptr, ptr, [38 x %"struct.SubAllocator::RAR_NODE"], ptr, ptr, ptr, ptr }
%"struct.SubAllocator::RAR_NODE" = type { ptr }
%class.ModelPPM = type <{ i8, [25 x [16 x %struct.RARPPM_SEE2_CONTEXT]], %struct.RARPPM_SEE2_CONTEXT, [3 x i8], ptr, ptr, ptr, ptr, i32, i32, i32, i32, i32, i32, [256 x i8], [256 x i8], [256 x i8], [256 x i8], i8, i8, i8, i8, [128 x [64 x i16]], [4 x i8], %class.RangeCoder, %class.SubAllocator }>
%struct.RARPPM_SEE2_CONTEXT = type { i16, i8, i8 }
%class.Unpack = type { ptr, %class.BitInput, %class.Array, %class.Array, %class.Array.0, [4 x i32], i32, i32, i32, i64, i64, i32, i32, %struct.UnpackBlockHeader, %struct.UnpackBlockTables, i64, ptr, %class.FragmentedWindow, i8, i64, i8, i8, i8, i64, i8, [256 x i16], [256 x i16], [256 x i16], [256 x i16], [256 x i8], [256 x i8], [256 x i8], i32, i32, i32, i32, i32, i32, i32, i32, i32, i32, i32, i32, i32, i32, [4 x %struct.DecodeTable], [1028 x i8], i8, i32, i32, i32, [4 x %struct.AudioVariables], i32, i32, %class.ModelPPM, i32, [404 x i8], i32, i8, i8, i8, %class.RarVM, %class.BitInput, %class.Array.1, %class.Array.1, %class.Array.2, i32, i64, i64 }
%class.Array = type { ptr, i64, i64, i64 }
%class.Array.0 = type { ptr, i64, i64, i64 }
%struct.UnpackBlockHeader = type { i32, i32, i32, i32, i8, i8 }
%struct.UnpackBlockTables = type { %struct.DecodeTable, %struct.DecodeTable, %struct.DecodeTable, %struct.DecodeTable, %struct.DecodeTable }
%struct.DecodeTable = type { i32, [16 x i32], [16 x i32], i32, [1024 x i8], [1024 x i16], [306 x i16] }
%class.FragmentedWindow = type { [32 x ptr], [32 x i64] }
%struct.AudioVariables = type { i32, i32, i32, i32, i32, i32, i32, i32, i32, i32, [11 x i32], i32, i32 }
%class.RarVM = type { ptr, [8 x i32] }
%class.BitInput = type { i32, i32, i8, ptr }
%class.Array.1 = type { ptr, i64, i64, i64 }
%class.Array.2 = type { ptr, i64, i64, i64 }

@ErrHandler = external global %class.ErrorHandler, align 4
@_ZTISt9bad_alloc = external constant ptr
@_ZTVSt9bad_alloc = external unnamed_addr constant { [5 x ptr] }, align 8
@_ZTVSt9exception = external unnamed_addr constant { [5 x ptr] }, align 8

; Function Attrs: mustprogress nounwind uwtable
define linkonce_odr void @_ZNSt9exceptionC2Ev(ptr noundef nonnull align 8 dereferenceable(8) %0) unnamed_addr #1 comdat align 2 {
  %2 = alloca ptr, align 8
  store ptr %0, ptr %2, align 8
  %3 = load ptr, ptr %2, align 8
  store ptr getelementptr inbounds inrange(-16, 24) ({ [5 x ptr] }, ptr @_ZTVSt9exception, i32 0, i32 0, i32 2), ptr %3, align 8
  ret void
}

; Function Attrs: mustprogress nounwind uwtable
define linkonce_odr void @_ZNSt9bad_allocC2Ev(ptr noundef nonnull align 8 dereferenceable(8) %0) unnamed_addr #1 comdat align 2 {
  %2 = alloca ptr, align 8
  store ptr %0, ptr %2, align 8
  %3 = load ptr, ptr %2, align 8
  call void @_ZNSt9exceptionC2Ev(ptr noundef nonnull align 8 dereferenceable(8) %3) #12
  store ptr getelementptr inbounds inrange(-16, 24) ({ [5 x ptr] }, ptr @_ZTVSt9bad_alloc, i32 0, i32 0, i32 2), ptr %3, align 8
  ret void
}

; Function Attrs: mustprogress uwtable
define void @_ZN6Unpack4InitEmb(ptr noundef nonnull align 8 dereferenceable(59688) %0, i64 noundef %1, i1 noundef zeroext %2) #0 align 2 {
  %4 = alloca ptr, align 8
  %5 = alloca i64, align 8
  %6 = alloca i8, align 1
  %7 = alloca i64, align 8
  %8 = alloca i64, align 8
  %9 = alloca i8, align 1
  %10 = alloca ptr, align 8
  %11 = alloca i64, align 8
  store ptr %0, ptr %4, align 8
  store i64 %1, ptr %5, align 8
  %12 = zext i1 %2 to i8
  store i8 %12, ptr %6, align 1
  %13 = load ptr, ptr %4, align 8
  %14 = load i64, ptr %5, align 8
  %15 = icmp eq i64 %14, 0
  br i1 %15, label %16, label %17

16:                                               ; preds = %3
  call void @_ZN12ErrorHandler11MemoryErrorEv(ptr noundef nonnull align 4 dereferenceable(14) @ErrHandler)
  br label %17

17:                                               ; preds = %16, %3
  store i64 262144, ptr %7, align 8
  %18 = load i64, ptr %5, align 8
  %19 = icmp ult i64 %18, 262144
  br i1 %19, label %20, label %21

20:                                               ; preds = %17
  store i64 262144, ptr %5, align 8
  br label %21

21:                                               ; preds = %20, %17
  %22 = load i64, ptr %5, align 8
  %23 = getelementptr inbounds %class.Unpack, ptr %13, i32 0, i32 68
  %24 = load i64, ptr %23, align 8
  %25 = icmp ule i64 %22, %24
  br i1 %25, label %26, label %27

26:                                               ; preds = %21
  br label %151

27:                                               ; preds = %21
  %28 = load i64, ptr %5, align 8
  %29 = lshr i64 %28, 16
  %30 = icmp ugt i64 %29, 65536
  br i1 %30, label %31, label %32

31:                                               ; preds = %27
  br label %151

32:                                               ; preds = %27
  store i64 1073741824, ptr %8, align 8
  %33 = load i64, ptr %5, align 8
  %34 = icmp ugt i64 %33, 1073741824
  br i1 %34, label %35, label %36

35:                                               ; preds = %32
  store i64 1073741824, ptr %5, align 8
  br label %36

36:                                               ; preds = %35, %32
  %37 = load i8, ptr %6, align 1
  %38 = trunc i8 %37 to i1
  br i1 %38, label %39, label %49

39:                                               ; preds = %36
  %40 = getelementptr inbounds %class.Unpack, ptr %13, i32 0, i32 16
  %41 = load ptr, ptr %40, align 8
  %42 = icmp ne ptr %41, null
  br i1 %42, label %47, label %43

43:                                               ; preds = %39
  %44 = getelementptr inbounds %class.Unpack, ptr %13, i32 0, i32 18
  %45 = load i8, ptr %44, align 8
  %46 = trunc i8 %45 to i1
  br label %47

47:                                               ; preds = %43, %39
  %48 = phi i1 [ true, %39 ], [ %46, %43 ]
  br label %49

49:                                               ; preds = %47, %36
  %50 = phi i1 [ false, %36 ], [ %48, %47 ]
  %51 = zext i1 %50 to i8
  store i8 %51, ptr %9, align 1
  %52 = load i8, ptr %9, align 1
  %53 = trunc i8 %52 to i1
  br i1 %53, label %54, label %60

54:                                               ; preds = %49
  %55 = getelementptr inbounds %class.Unpack, ptr %13, i32 0, i32 18
  %56 = load i8, ptr %55, align 8
  %57 = trunc i8 %56 to i1
  br i1 %57, label %58, label %60

58:                                               ; preds = %54
  %59 = call ptr @__cxa_allocate_exception(i64 8) #12
  call void @_ZNSt9bad_allocC2Ev(ptr noundef nonnull align 8 dereferenceable(8) %59) #12
  call void @__cxa_throw(ptr %59, ptr @_ZTISt9bad_alloc, ptr @_ZNSt9bad_allocD1Ev) #14
  unreachable

60:                                               ; preds = %54, %49
  %61 = getelementptr inbounds %class.Unpack, ptr %13, i32 0, i32 18
  %62 = load i8, ptr %61, align 8
  %63 = trunc i8 %62 to i1
  br i1 %63, label %64, label %65

64:                                               ; preds = %60
  br label %68

65:                                               ; preds = %60
  %66 = load i64, ptr %5, align 8
  %67 = call noalias ptr @malloc(i64 noundef %66) #13
  br label %68

68:                                               ; preds = %65, %64
  %69 = phi ptr [ null, %64 ], [ %67, %65 ]
  store ptr %69, ptr %10, align 8
  %70 = load ptr, ptr %10, align 8
  %71 = icmp eq ptr %70, null
  br i1 %71, label %72, label %93

72:                                               ; preds = %68
  %73 = load i8, ptr %9, align 1
  %74 = trunc i8 %73 to i1
  br i1 %74, label %78, label %75

75:                                               ; preds = %72
  %76 = load i64, ptr %5, align 8
  %77 = icmp ult i64 %76, 16777216
  br i1 %77, label %78, label %80

78:                                               ; preds = %75, %72
  %79 = call ptr @__cxa_allocate_exception(i64 8) #12
  call void @_ZNSt9bad_allocC2Ev(ptr noundef nonnull align 8 dereferenceable(8) %79) #12
  call void @__cxa_throw(ptr %79, ptr @_ZTISt9bad_alloc, ptr @_ZNSt9bad_allocD1Ev) #14
  unreachable

80:                                               ; preds = %75
  %81 = getelementptr inbounds %class.Unpack, ptr %13, i32 0, i32 16
  %82 = load ptr, ptr %81, align 8
  %83 = icmp ne ptr %82, null
  br i1 %83, label %84, label %88

84:                                               ; preds = %80
  %85 = getelementptr inbounds %class.Unpack, ptr %13, i32 0, i32 16
  %86 = load ptr, ptr %85, align 8
  call void @free(ptr noundef %86) #12
  %87 = getelementptr inbounds %class.Unpack, ptr %13, i32 0, i32 16
  store ptr null, ptr %87, align 8
  br label %88

88:                                               ; preds = %84, %80
  %89 = getelementptr inbounds %class.Unpack, ptr %13, i32 0, i32 17
  %90 = load i64, ptr %5, align 8
  call void @_ZN16FragmentedWindow4InitEm(ptr noundef nonnull align 8 dereferenceable(512) %89, i64 noundef %90)
  %91 = getelementptr inbounds %class.Unpack, ptr %13, i32 0, i32 18
  store i8 1, ptr %91, align 8
  br label %92

92:                                               ; preds = %88
  br label %93

93:                                               ; preds = %92, %68
  %94 = getelementptr inbounds %class.Unpack, ptr %13, i32 0, i32 18
  %95 = load i8, ptr %94, align 8
  %96 = trunc i8 %95 to i1
  br i1 %96, label %144, label %97

97:                                               ; preds = %93
  %98 = load ptr, ptr %10, align 8
  %99 = load i64, ptr %5, align 8
  call void @llvm.memset.p0.i64(ptr align 1 %98, i8 0, i64 %99, i1 false)
  %100 = load i8, ptr %9, align 1
  %101 = trunc i8 %100 to i1
  br i1 %101, label %102, label %134

102:                                              ; preds = %97
  store i64 1, ptr %11, align 8
  br label %103

103:                                              ; preds = %130, %102
  %104 = load i64, ptr %11, align 8
  %105 = getelementptr inbounds %class.Unpack, ptr %13, i32 0, i32 68
  %106 = load i64, ptr %105, align 8
  %107 = icmp ule i64 %104, %106
  br i1 %107, label %108, label %133

108:                                              ; preds = %103
  %109 = getelementptr inbounds %class.Unpack, ptr %13, i32 0, i32 16
  %110 = load ptr, ptr %109, align 8
  %111 = getelementptr inbounds %class.Unpack, ptr %13, i32 0, i32 9
  %112 = load i64, ptr %111, align 8
  %113 = load i64, ptr %11, align 8
  %114 = sub i64 %112, %113
  %115 = getelementptr inbounds %class.Unpack, ptr %13, i32 0, i32 68
  %116 = load i64, ptr %115, align 8
  %117 = sub i64 %116, 1
  %118 = and i64 %114, %117
  %119 = getelementptr inbounds i8, ptr %110, i64 %118
  %120 = load i8, ptr %119, align 1
  %121 = load ptr, ptr %10, align 8
  %122 = getelementptr inbounds %class.Unpack, ptr %13, i32 0, i32 9
  %123 = load i64, ptr %122, align 8
  %124 = load i64, ptr %11, align 8
  %125 = sub i64 %123, %124
  %126 = load i64, ptr %5, align 8
  %127 = sub i64 %126, 1
  %128 = and i64 %125, %127
  %129 = getelementptr inbounds i8, ptr %121, i64 %128
  store i8 %120, ptr %129, align 1
  br label %130

130:                                              ; preds = %108
  %131 = load i64, ptr %11, align 8
  %132 = add i64 %131, 1
  store i64 %132, ptr %11, align 8
  br label %103, !llvm.loop !116

133:                                              ; preds = %103
  br label %134

134:                                              ; preds = %133, %97
  %135 = getelementptr inbounds %class.Unpack, ptr %13, i32 0, i32 16
  %136 = load ptr, ptr %135, align 8
  %137 = icmp ne ptr %136, null
  br i1 %137, label %138, label %141

138:                                              ; preds = %134
  %139 = getelementptr inbounds %class.Unpack, ptr %13, i32 0, i32 16
  %140 = load ptr, ptr %139, align 8
  call void @free(ptr noundef %140) #12
  br label %141

141:                                              ; preds = %138, %134
  %142 = load ptr, ptr %10, align 8
  %143 = getelementptr inbounds %class.Unpack, ptr %13, i32 0, i32 16
  store ptr %142, ptr %143, align 8
  br label %144

144:                                              ; preds = %141, %93
  %145 = load i64, ptr %5, align 8
  %146 = getelementptr inbounds %class.Unpack, ptr %13, i32 0, i32 68
  store i64 %145, ptr %146, align 8
  %147 = getelementptr inbounds %class.Unpack, ptr %13, i32 0, i32 68
  %148 = load i64, ptr %147, align 8
  %149 = sub i64 %148, 1
  %150 = getelementptr inbounds %class.Unpack, ptr %13, i32 0, i32 69
  store i64 %149, ptr %150, align 8
  br label %151

151:                                              ; preds = %144, %31, %26
  ret void
}