; Function Attrs: mustprogress uwtable
define void @_ZN6Unpack4InitEmb(ptr nocapture noundef nonnull align 8 dereferenceable(59688) %0, i64 noundef %1, i1 noundef zeroext %2) local_unnamed_addr #0 align 2 {
  %4 = icmp eq i64 %1, 0
  br i1 %4, label %5, label %6

5:                                                ; preds = %3
  tail call void @_ZN12ErrorHandler11MemoryErrorEv(ptr noundef nonnull align 4 dereferenceable(14) @ErrHandler)
  br label %6

6:                                                ; preds = %5, %3
  %spec.store.select = tail call i64 @llvm.umax.i64(i64 %1, i64 262144)
  %7 = getelementptr inbounds i8, ptr %0, i64 59672
  %8 = load i64, ptr %7, align 8
  %.not = icmp ule i64 %spec.store.select, %8
  %9 = icmp ugt i64 %1, 4295032831
  %or.cond32 = or i1 %9, %.not
  br i1 %or.cond32, label %62, label %10

10:                                               ; preds = %6
  %spec.store.select1 = tail call i64 @llvm.umin.i64(i64 %spec.store.select, i64 1073741824)
  br i1 %2, label %11, label %..thread33_crit_edge

..thread33_crit_edge:                             ; preds = %10
  %.phi.trans.insert37 = getelementptr inbounds i8, ptr %0, i64 19832
  %.pre38 = load i8, ptr %.phi.trans.insert37, align 8
  br label %.thread33

11:                                               ; preds = %10
  %12 = getelementptr inbounds i8, ptr %0, i64 19312
  %13 = load ptr, ptr %12, align 8
  %.not28 = icmp eq ptr %13, null
  %14 = getelementptr inbounds i8, ptr %0, i64 19832
  %15 = load i8, ptr %14, align 8
  br i1 %.not28, label %16, label %.thread

16:                                               ; preds = %11
  %17 = trunc i8 %15 to i1
  br i1 %17, label %.thread, label %.thread33

.thread:                                          ; preds = %11, %16
  %18 = trunc i8 %15 to i1
  br i1 %18, label %19, label %.thread33

19:                                               ; preds = %.thread
  %20 = tail call ptr @__cxa_allocate_exception(i64 8) #21
  store ptr getelementptr inbounds inrange(-16, 24) ({ [5 x ptr] }, ptr @_ZTVSt9bad_alloc, i64 0, i32 0, i64 2), ptr %20, align 8
  tail call void @__cxa_throw(ptr nonnull %20, ptr nonnull @_ZTISt9bad_alloc, ptr nonnull @_ZNSt9bad_allocD1Ev) #23
  unreachable

.thread33:                                        ; preds = %..thread33_crit_edge, %.thread, %16
  %21 = phi i8 [ %15, %.thread ], [ %15, %16 ], [ %.pre38, %..thread33_crit_edge ]
  %22 = phi i1 [ true, %.thread ], [ false, %16 ], [ false, %..thread33_crit_edge ]
  %23 = getelementptr inbounds i8, ptr %0, i64 19832
  %24 = trunc i8 %21 to i1
  br i1 %24, label %.thread34, label %25

25:                                               ; preds = %.thread33
  %26 = tail call noalias ptr @malloc(i64 noundef %spec.store.select1) #22
  %27 = icmp eq ptr %26, null
  br i1 %27, label %.thread34, label %36

.thread34:                                        ; preds = %.thread33, %25
  %28 = icmp ult i64 %1, 16777216
  %or.cond = or i1 %28, %22
  br i1 %or.cond, label %29, label %31

29:                                               ; preds = %.thread34
  %30 = tail call ptr @__cxa_allocate_exception(i64 8) #21
  store ptr getelementptr inbounds inrange(-16, 24) ({ [5 x ptr] }, ptr @_ZTVSt9bad_alloc, i64 0, i32 0, i64 2), ptr %30, align 8
  tail call void @__cxa_throw(ptr nonnull %30, ptr nonnull @_ZTISt9bad_alloc, ptr nonnull @_ZNSt9bad_allocD1Ev) #23
  unreachable

31:                                               ; preds = %.thread34
  %32 = getelementptr inbounds i8, ptr %0, i64 19312
  %33 = load ptr, ptr %32, align 8
  %.not29 = icmp eq ptr %33, null
  br i1 %.not29, label %.thread39, label %34

34:                                               ; preds = %31
  tail call void @free(ptr noundef nonnull %33) #21
  store ptr null, ptr %32, align 8
  br label %.thread39

.thread39:                                        ; preds = %31, %34
  %35 = getelementptr inbounds i8, ptr %0, i64 19320
  tail call void @_ZN16FragmentedWindow4InitEm(ptr noundef nonnull align 8 dereferenceable(512) %35, i64 noundef %spec.store.select1)
  store i8 1, ptr %23, align 8
  br label %59

36:                                               ; preds = %25
  %37 = trunc i8 %21 to i1
  br i1 %37, label %59, label %38

38:                                               ; preds = %36
  tail call void @llvm.memset.p0.i64(ptr noundef nonnull align 1 dereferenceable(1) %26, i8 0, i64 %spec.store.select1, i1 false)
  br i1 %22, label %.preheader, label %.loopexit

.preheader:                                       ; preds = %38
  %39 = load i64, ptr %7, align 8
  %.not3035 = icmp eq i64 %39, 0
  br i1 %.not3035, label %.loopexit, label %.lr.ph

.lr.ph:                                           ; preds = %.preheader
  %40 = getelementptr inbounds i8, ptr %0, i64 19312
  %41 = load ptr, ptr %40, align 8
  %42 = getelementptr inbounds i8, ptr %0, i64 160
  %43 = load i64, ptr %42, align 8
  %44 = add i64 %39, -1
  %45 = add nsw i64 %spec.store.select1, -1
  %46 = add i64 %39, 1
  %umax = tail call i64 @llvm.umax.i64(i64 %46, i64 2)
  br label %47

47:                                               ; preds = %.lr.ph, %47
  %.036 = phi i64 [ 1, %.lr.ph ], [ %54, %47 ]
  %48 = sub i64 %43, %.036
  %49 = and i64 %48, %44
  %50 = getelementptr inbounds i8, ptr %41, i64 %49
  %51 = load i8, ptr %50, align 1
  %52 = and i64 %48, %45
  %53 = getelementptr inbounds i8, ptr %26, i64 %52
  store i8 %51, ptr %53, align 1
  %54 = add nuw i64 %.036, 1
  %exitcond = icmp eq i64 %54, %umax
  br i1 %exitcond, label %.loopexit, label %47, !llvm.loop !116

.loopexit:                                        ; preds = %47, %.preheader, %38
  %55 = getelementptr inbounds i8, ptr %0, i64 19312
  %56 = load ptr, ptr %55, align 8
  %.not31 = icmp eq ptr %56, null
  br i1 %.not31, label %58, label %57

57:                                               ; preds = %.loopexit
  tail call void @free(ptr noundef nonnull %56) #21
  br label %58

58:                                               ; preds = %57, %.loopexit
  store ptr %26, ptr %55, align 8
  br label %59

59:                                               ; preds = %.thread39, %58, %36
  store i64 %spec.store.select1, ptr %7, align 8
  %60 = add nsw i64 %spec.store.select1, -1
  %61 = getelementptr inbounds i8, ptr %0, i64 59680
  store i64 %60, ptr %61, align 8
  br label %62

62:                                               ; preds = %6, %59
  ret void
}